target datalayout = "e-m:e-p270:32:32-p271:32:32-p272:64:64-i64:64-i128:128-f80:128-n8:16:32:64-S128"
target triple = "x86_64-pc-linux-gnu"

%struct.VduseVirtq = type { %struct.VduseRing, i16, i16, i16, i16, i8, i32, i32, i8, i32, ptr, ptr, i16, i64, ptr }
%struct.VduseRing = type { i32, i64, i64, i64, ptr, ptr, ptr }
%struct.VduseDev = type { ptr, [256 x %struct.VduseIovaRegion], i32, ptr, i32, i32, i16, i16, i64, ptr, i32, i32, ptr, ptr }
%struct.VduseIovaRegion = type { i64, i64, i64, i64 }

; Function Attrs: inlinehint nounwind uwtable
define internal i64 @vduse_vq_log_size(i16 noundef zeroext %0) #5 {
  %2 = alloca i16, align 2
  store i16 %0, ptr %2, align 2
  %3 = load i16, ptr %2, align 2
  %4 = zext i16 %3 to i64
  %5 = mul i64 16, %4
  %6 = add i64 %5, 16
  %7 = add i64 %6, 64
  %8 = sub i64 %7, 1
  %9 = udiv i64 %8, 64
  %10 = mul i64 %9, 64
  ret i64 %10
}

; Function Attrs: nounwind uwtable
define dso_local i32 @vduse_dev_destroy(ptr noundef %0) #0 {
  %2 = alloca ptr, align 8
  %3 = alloca i64, align 8
  %4 = alloca i32, align 4
  %5 = alloca i32, align 4
  store ptr %0, ptr %2, align 8
  call void @llvm.lifetime.start.p0(i64 8, ptr %3) #13
  %6 = load ptr, ptr %2, align 8
  %7 = getelementptr inbounds nuw %struct.VduseDev, ptr %6, i32 0, i32 6
  %8 = load i16, ptr %7, align 8
  %9 = zext i16 %8 to i64
  %10 = call i64 @vduse_vq_log_size(i16 noundef zeroext 1024)
  %11 = mul i64 %9, %10
  store i64 %11, ptr %3, align 8
  call void @llvm.lifetime.start.p0(i64 4, ptr %4) #13
  store i32 0, ptr %4, align 4, !annotation !4
  call void @llvm.lifetime.start.p0(i64 4, ptr %5) #13
  store i32 0, ptr %5, align 4
  %12 = load ptr, ptr %2, align 8
  %13 = getelementptr inbounds nuw %struct.VduseDev, ptr %12, i32 0, i32 13
  %14 = load ptr, ptr %13, align 8
  %15 = icmp ne ptr %14, null
  br i1 %15, label %16, label %22

16:                                               ; preds = %1
  %17 = load ptr, ptr %2, align 8
  %18 = getelementptr inbounds nuw %struct.VduseDev, ptr %17, i32 0, i32 13
  %19 = load ptr, ptr %18, align 8
  %20 = load i64, ptr %3, align 8
  %21 = call i32 @munmap(ptr noundef %19, i64 noundef %20) #13
  br label %22

22:                                               ; preds = %16, %1
  store i32 0, ptr %4, align 4
  br label %23

23:                                               ; preds = %39, %22
  %24 = load i32, ptr %4, align 4
  %25 = load ptr, ptr %2, align 8
  %26 = getelementptr inbounds nuw %struct.VduseDev, ptr %25, i32 0, i32 6
  %27 = load i16, ptr %26, align 8
  %28 = zext i16 %27 to i32
  %29 = icmp slt i32 %24, %28
  br i1 %29, label %30, label %42

30:                                               ; preds = %23
  %31 = load ptr, ptr %2, align 8
  %32 = getelementptr inbounds nuw %struct.VduseDev, ptr %31, i32 0, i32 0
  %33 = load ptr, ptr %32, align 8
  %34 = load i32, ptr %4, align 4
  %35 = sext i32 %34 to i64
  %36 = getelementptr inbounds %struct.VduseVirtq, ptr %33, i64 %35
  %37 = getelementptr inbounds nuw %struct.VduseVirtq, ptr %36, i32 0, i32 11
  %38 = load ptr, ptr %37, align 8
  call void @free(ptr noundef %38) #13
  br label %39

39:                                               ; preds = %30
  %40 = load i32, ptr %4, align 4
  %41 = add i32 %40, 1
  store i32 %41, ptr %4, align 4
  br label %23

42:                                               ; preds = %23
  %43 = load ptr, ptr %2, align 8
  %44 = getelementptr inbounds nuw %struct.VduseDev, ptr %43, i32 0, i32 0
  %45 = load ptr, ptr %44, align 8
  call void @free(ptr noundef %45) #13
  %46 = load ptr, ptr %2, align 8
  %47 = getelementptr inbounds nuw %struct.VduseDev, ptr %46, i32 0, i32 10
  %48 = load i32, ptr %47, align 8
  %49 = icmp sge i32 %48, 0
  br i1 %49, label %50, label %57

50:                                               ; preds = %42
  %51 = load ptr, ptr %2, align 8
  %52 = getelementptr inbounds nuw %struct.VduseDev, ptr %51, i32 0, i32 10
  %53 = load i32, ptr %52, align 8
  %54 = call i32 @close(i32 noundef %53)
  %55 = load ptr, ptr %2, align 8
  %56 = getelementptr inbounds nuw %struct.VduseDev, ptr %55, i32 0, i32 10
  store i32 -1, ptr %56, align 8
  br label %57

57:                                               ; preds = %50, %42
  %58 = load ptr, ptr %2, align 8
  %59 = getelementptr inbounds nuw %struct.VduseDev, ptr %58, i32 0, i32 11
  %60 = load i32, ptr %59, align 4
  %61 = icmp sge i32 %60, 0
  br i1 %61, label %62, label %82

62:                                               ; preds = %57
  %63 = load ptr, ptr %2, align 8
  %64 = getelementptr inbounds nuw %struct.VduseDev, ptr %63, i32 0, i32 11
  %65 = load i32, ptr %64, align 4
  %66 = load ptr, ptr %2, align 8
  %67 = getelementptr inbounds nuw %struct.VduseDev, ptr %66, i32 0, i32 3
  %68 = load ptr, ptr %67, align 8
  %69 = call i32 (i32, i64, ...) @ioctl(i32 noundef %65, i64 noundef 1090552067, ptr noundef %68) #13
  %70 = icmp ne i32 %69, 0
  br i1 %70, label %71, label %75

71:                                               ; preds = %62
  %72 = call ptr @__errno_location() #14
  %73 = load i32, ptr %72, align 4
  %74 = sub i32 0, %73
  store i32 %74, ptr %5, align 4
  br label %75

75:                                               ; preds = %71, %62
  %76 = load ptr, ptr %2, align 8
  %77 = getelementptr inbounds nuw %struct.VduseDev, ptr %76, i32 0, i32 11
  %78 = load i32, ptr %77, align 4
  %79 = call i32 @close(i32 noundef %78)
  %80 = load ptr, ptr %2, align 8
  %81 = getelementptr inbounds nuw %struct.VduseDev, ptr %80, i32 0, i32 11
  store i32 -1, ptr %81, align 4
  br label %82

82:                                               ; preds = %75, %57
  %83 = load ptr, ptr %2, align 8
  %84 = getelementptr inbounds nuw %struct.VduseDev, ptr %83, i32 0, i32 3
  %85 = load ptr, ptr %84, align 8
  call void @free(ptr noundef %85) #13
  %86 = load ptr, ptr %2, align 8
  call void @free(ptr noundef %86) #13
  %87 = load i32, ptr %5, align 4
  call void @llvm.lifetime.end.p0(i64 4, ptr %5) #13
  call void @llvm.lifetime.end.p0(i64 4, ptr %4) #13
  call void @llvm.lifetime.end.p0(i64 8, ptr %3) #13
  ret i32 %87
}