; Function Attrs: nounwind uwtable
define dso_local i32 @vduse_dev_destroy(ptr noundef captures(none) %0) local_unnamed_addr #2 {
  %2 = getelementptr inbounds nuw i8, ptr %0, i64 8224
  %3 = getelementptr inbounds nuw i8, ptr %0, i64 8264
  %4 = load ptr, ptr %3, align 8
  %.not = icmp eq ptr %4, null
  br i1 %.not, label %10, label %5

5:                                                ; preds = %1
  %6 = load i16, ptr %2, align 8
  %7 = zext i16 %6 to i64
  %8 = mul nuw nsw i64 %7, 16448
  %9 = tail call i32 @munmap(ptr noundef nonnull %4, i64 noundef %8) #20
  br label %10

10:                                               ; preds = %5, %1
  %11 = load i16, ptr %2, align 8
  %.not26 = icmp eq i16 %11, 0
  br i1 %.not26, label %._crit_edge, label %.lr.ph

.lr.ph:                                           ; preds = %10, %.lr.ph
  %indvars.iv = phi i64 [ %indvars.iv.next, %.lr.ph ], [ 0, %10 ]
  %12 = load ptr, ptr %0, align 8
  %13 = getelementptr inbounds nuw %struct.VduseVirtq, ptr %12, i64 %indvars.iv, i32 11
  %14 = load ptr, ptr %13, align 8
  tail call void @free(ptr noundef %14) #20
  %indvars.iv.next = add nuw nsw i64 %indvars.iv, 1
  %15 = load i16, ptr %2, align 8
  %16 = zext i16 %15 to i64
  %17 = icmp samesign ult i64 %indvars.iv.next, %16
  br i1 %17, label %.lr.ph, label %._crit_edge

._crit_edge:                                      ; preds = %.lr.ph, %10
  %18 = load ptr, ptr %0, align 8
  tail call void @free(ptr noundef %18) #20
  %19 = getelementptr inbounds nuw i8, ptr %0, i64 8248
  %20 = load i32, ptr %19, align 8
  %21 = icmp sgt i32 %20, -1
  br i1 %21, label %22, label %24

22:                                               ; preds = %._crit_edge
  %23 = tail call i32 @close(i32 noundef %20) #20
  store i32 -1, ptr %19, align 8
  br label %24

24:                                               ; preds = %22, %._crit_edge
  %25 = getelementptr inbounds nuw i8, ptr %0, i64 8252
  %26 = load i32, ptr %25, align 4
  %27 = icmp sgt i32 %26, -1
  br i1 %27, label %28, label %39

28:                                               ; preds = %24
  %29 = getelementptr inbounds nuw i8, ptr %0, i64 8208
  %30 = load ptr, ptr %29, align 8
  %31 = tail call i32 (i32, i64, ...) @ioctl(i32 noundef %26, i64 noundef 1090552067, ptr noundef %30) #20
  %.not24 = icmp eq i32 %31, 0
  br i1 %.not24, label %36, label %32

32:                                               ; preds = %28
  %33 = tail call ptr @__errno_location() #21
  %34 = load i32, ptr %33, align 4
  %35 = sub i32 0, %34
  br label %36

36:                                               ; preds = %32, %28
  %.1 = phi i32 [ %35, %32 ], [ 0, %28 ]
  %37 = load i32, ptr %25, align 4
  %38 = tail call i32 @close(i32 noundef %37) #20
  store i32 -1, ptr %25, align 4
  br label %39

39:                                               ; preds = %36, %24
  %.0 = phi i32 [ %.1, %36 ], [ 0, %24 ]
  %40 = getelementptr inbounds nuw i8, ptr %0, i64 8208
  %41 = load ptr, ptr %40, align 8
  tail call void @free(ptr noundef %41) #20
  tail call void @free(ptr noundef nonnull %0) #20
  ret i32 %.0
}